target datalayout = "e-m:e-p270:32:32-p271:32:32-p272:64:64-i64:64-i128:128-f80:128-n8:16:32:64-S128"
target triple = "x86_64-pc-linux-gnu"

%"class.Assimp::ASE::Parser" = type <{ ptr, ptr, %struct.aiColor3D, %struct.aiColor3D, %"class.std::vector", %"class.std::vector.0", %"class.std::vector.5", %"class.std::vector.10", %"class.std::vector.15", i32, i32, i32, i32, i32, i8, [3 x i8], i32, [4 x i8] }>
%struct.aiColor3D = type { float, float, float }
%"class.std::vector" = type { %"struct.std::_Vector_base" }
%"struct.std::_Vector_base" = type { %"struct.std::_Vector_base<Assimp::ASE::Material, std::allocator<Assimp::ASE::Material>>::_Vector_impl" }
%"struct.std::_Vector_base<Assimp::ASE::Material, std::allocator<Assimp::ASE::Material>>::_Vector_impl" = type { %"struct.std::_Vector_base<Assimp::ASE::Material, std::allocator<Assimp::ASE::Material>>::_Vector_impl_data" }
%"struct.std::_Vector_base<Assimp::ASE::Material, std::allocator<Assimp::ASE::Material>>::_Vector_impl_data" = type { ptr, ptr, ptr }
%"class.std::vector.0" = type { %"struct.std::_Vector_base.1" }
%"struct.std::_Vector_base.1" = type { %"struct.std::_Vector_base<Assimp::ASE::Mesh, std::allocator<Assimp::ASE::Mesh>>::_Vector_impl" }
%"struct.std::_Vector_base<Assimp::ASE::Mesh, std::allocator<Assimp::ASE::Mesh>>::_Vector_impl" = type { %"struct.std::_Vector_base<Assimp::ASE::Mesh, std::allocator<Assimp::ASE::Mesh>>::_Vector_impl_data" }
%"struct.std::_Vector_base<Assimp::ASE::Mesh, std::allocator<Assimp::ASE::Mesh>>::_Vector_impl_data" = type { ptr, ptr, ptr }
%"class.std::vector.5" = type { %"struct.std::_Vector_base.6" }
%"struct.std::_Vector_base.6" = type { %"struct.std::_Vector_base<Assimp::ASE::Dummy, std::allocator<Assimp::ASE::Dummy>>::_Vector_impl" }
%"struct.std::_Vector_base<Assimp::ASE::Dummy, std::allocator<Assimp::ASE::Dummy>>::_Vector_impl" = type { %"struct.std::_Vector_base<Assimp::ASE::Dummy, std::allocator<Assimp::ASE::Dummy>>::_Vector_impl_data" }
%"struct.std::_Vector_base<Assimp::ASE::Dummy, std::allocator<Assimp::ASE::Dummy>>::_Vector_impl_data" = type { ptr, ptr, ptr }
%"class.std::vector.10" = type { %"struct.std::_Vector_base.11" }
%"struct.std::_Vector_base.11" = type { %"struct.std::_Vector_base<Assimp::ASE::Light, std::allocator<Assimp::ASE::Light>>::_Vector_impl" }
%"struct.std::_Vector_base<Assimp::ASE::Light, std::allocator<Assimp::ASE::Light>>::_Vector_impl" = type { %"struct.std::_Vector_base<Assimp::ASE::Light, std::allocator<Assimp::ASE::Light>>::_Vector_impl_data" }
%"struct.std::_Vector_base<Assimp::ASE::Light, std::allocator<Assimp::ASE::Light>>::_Vector_impl_data" = type { ptr, ptr, ptr }
%"class.std::vector.15" = type { %"struct.std::_Vector_base.16" }
%"struct.std::_Vector_base.16" = type { %"struct.std::_Vector_base<Assimp::ASE::Camera, std::allocator<Assimp::ASE::Camera>>::_Vector_impl" }
%"struct.std::_Vector_base<Assimp::ASE::Camera, std::allocator<Assimp::ASE::Camera>>::_Vector_impl" = type { %"struct.std::_Vector_base<Assimp::ASE::Camera, std::allocator<Assimp::ASE::Camera>>::_Vector_impl_data" }
%"struct.std::_Vector_base<Assimp::ASE::Camera, std::allocator<Assimp::ASE::Camera>>::_Vector_impl_data" = type { ptr, ptr, ptr }

@.str = private unnamed_addr constant [12 x i8] c"Line %u: %s\00", align 1
@.str.206 = private unnamed_addr constant [43 x i8] c"Unable to parse float: unexpected EOL [#1]\00", align 1

; Function Attrs: inlinehint mustprogress nounwind uwtable
define linkonce_odr hidden noundef zeroext i1 @_ZN6Assimp9IsLineEndIcEEbT_(i8 noundef signext %0) #2 comdat {
  %2 = alloca i8, align 1
  store i8 %0, ptr %2, align 1
  %3 = load i8, ptr %2, align 1
  %4 = sext i8 %3 to i32
  %5 = icmp eq i32 %4, 13
  br i1 %5, label %18, label %6

6:                                                ; preds = %1
  %7 = load i8, ptr %2, align 1
  %8 = sext i8 %7 to i32
  %9 = icmp eq i32 %8, 10
  br i1 %9, label %18, label %10

10:                                               ; preds = %6
  %11 = load i8, ptr %2, align 1
  %12 = sext i8 %11 to i32
  %13 = icmp eq i32 %12, 0
  br i1 %13, label %18, label %14

14:                                               ; preds = %10
  %15 = load i8, ptr %2, align 1
  %16 = sext i8 %15 to i32
  %17 = icmp eq i32 %16, 12
  br label %18

18:                                               ; preds = %14, %10, %6, %1
  %19 = phi i1 [ true, %10 ], [ true, %6 ], [ true, %1 ], [ %17, %14 ]
  ret i1 %19
}

; Function Attrs: inlinehint mustprogress uwtable
define linkonce_odr hidden noundef zeroext i1 @_ZN6Assimp10SkipSpacesIcEEbPKT_PS3_S3_(ptr noundef %0, ptr noundef %1, ptr noundef %2) #7 comdat {
  %4 = alloca ptr, align 8
  %5 = alloca ptr, align 8
  %6 = alloca ptr, align 8
  store ptr %0, ptr %4, align 8
  store ptr %1, ptr %5, align 8
  store ptr %2, ptr %6, align 8
  br label %7

7:                                                ; preds = %23, %3
  %8 = load ptr, ptr %4, align 8
  %9 = load i8, ptr %8, align 1
  %10 = sext i8 %9 to i32
  %11 = icmp eq i32 %10, 32
  br i1 %11, label %17, label %12

12:                                               ; preds = %7
  %13 = load ptr, ptr %4, align 8
  %14 = load i8, ptr %13, align 1
  %15 = sext i8 %14 to i32
  %16 = icmp eq i32 %15, 9
  br i1 %16, label %17, label %21

17:                                               ; preds = %12, %7
  %18 = load ptr, ptr %4, align 8
  %19 = load ptr, ptr %6, align 8
  %20 = icmp ne ptr %18, %19
  br label %21

21:                                               ; preds = %17, %12
  %22 = phi i1 [ false, %12 ], [ %20, %17 ]
  br i1 %22, label %23, label %26

23:                                               ; preds = %21
  %24 = load ptr, ptr %4, align 8
  %25 = getelementptr inbounds nuw i8, ptr %24, i32 1
  store ptr %25, ptr %4, align 8
  br label %7, !llvm.loop !53

26:                                               ; preds = %21
  %27 = load ptr, ptr %4, align 8
  %28 = load ptr, ptr %5, align 8
  store ptr %27, ptr %28, align 8
  %29 = load ptr, ptr %4, align 8
  %30 = load i8, ptr %29, align 1
  %31 = call noundef zeroext i1 @_ZN6Assimp9IsLineEndIcEEbT_(i8 noundef signext %30)
  %32 = xor i1 %31, true
  ret i1 %32
}

; Function Attrs: mustprogress uwtable
define hidden void @_ZN6Assimp3ASE6Parser10LogWarningEPKc(ptr noundef nonnull align 8 dereferenceable(188) %0, ptr noundef %1) #0 align 2 {
  %3 = alloca ptr, align 8
  %4 = alloca ptr, align 8
  %5 = alloca [2048 x i8], align 16
  store ptr %0, ptr %3, align 8
  store ptr %1, ptr %4, align 8
  %6 = load ptr, ptr %3, align 8
  call void @llvm.lifetime.start.p0(i64 2048, ptr %5) #20
  %7 = getelementptr inbounds [2048 x i8], ptr %5, i64 0, i64 0
  %8 = getelementptr inbounds nuw %"class.Assimp::ASE::Parser", ptr %6, i32 0, i32 9
  %9 = load i32, ptr %8, align 8
  %10 = load ptr, ptr %4, align 8
  %11 = call i32 (ptr, i64, ptr, ...) @snprintf(ptr noundef %7, i64 noundef 2048, ptr noundef @.str, i32 noundef %9, ptr noundef %10) #20
  %12 = call noundef ptr @_ZN6Assimp13DefaultLogger3getEv()
  call void @_ZN6Assimp6Logger4warnIJRA2048_cEEEvDpOT_(ptr noundef nonnull align 8 dereferenceable(12) %12, ptr noundef nonnull align 1 dereferenceable(2048) %5)
  call void @llvm.lifetime.end.p0(i64 2048, ptr %5) #20
  ret void
}

; Function Attrs: inlinehint mustprogress uwtable
define linkonce_odr hidden noundef zeroext i1 @_ZN6Assimp10SkipSpacesIcEEbPPKT_S3_(ptr noundef %0, ptr noundef %1) #7 comdat {
  %3 = alloca ptr, align 8
  %4 = alloca ptr, align 8
  store ptr %0, ptr %3, align 8
  store ptr %1, ptr %4, align 8
  %5 = load ptr, ptr %3, align 8
  %6 = load ptr, ptr %5, align 8
  %7 = load ptr, ptr %3, align 8
  %8 = load ptr, ptr %4, align 8
  %9 = call noundef zeroext i1 @_ZN6Assimp10SkipSpacesIcEEbPKT_PS3_S3_(ptr noundef %6, ptr noundef %7, ptr noundef %8)
  ret i1 %9
}

; Function Attrs: mustprogress uwtable
define hidden void @_ZN6Assimp3ASE6Parser17ParseLV4MeshFloatERf(ptr noundef nonnull align 8 dereferenceable(188) %0, ptr noundef nonnull align 4 dereferenceable(4) %1) #0 align 2 {
  %3 = alloca ptr, align 8
  %4 = alloca ptr, align 8
  store ptr %0, ptr %3, align 8
  store ptr %1, ptr %4, align 8
  %5 = load ptr, ptr %3, align 8
  %6 = getelementptr inbounds nuw %"class.Assimp::ASE::Parser", ptr %5, i32 0, i32 0
  %7 = getelementptr inbounds nuw %"class.Assimp::ASE::Parser", ptr %5, i32 0, i32 1
  %8 = load ptr, ptr %7, align 8
  %9 = call noundef zeroext i1 @_ZN6Assimp10SkipSpacesIcEEbPPKT_S3_(ptr noundef %6, ptr noundef %8)
  br i1 %9, label %15, label %10

10:                                               ; preds = %2
  call void @_ZN6Assimp3ASE6Parser10LogWarningEPKc(ptr noundef nonnull align 8 dereferenceable(188) %5, ptr noundef @.str.206)
  %11 = load ptr, ptr %4, align 8
  store float 0.000000e+00, ptr %11, align 4
  %12 = getelementptr inbounds nuw %"class.Assimp::ASE::Parser", ptr %5, i32 0, i32 9
  %13 = load i32, ptr %12, align 8
  %14 = add i32 %13, 1
  store i32 %14, ptr %12, align 8
  br label %21

15:                                               ; preds = %2
  %16 = getelementptr inbounds nuw %"class.Assimp::ASE::Parser", ptr %5, i32 0, i32 0
  %17 = load ptr, ptr %16, align 8
  %18 = load ptr, ptr %4, align 8
  %19 = call noundef ptr @_ZN6Assimp17fast_atoreal_moveIf17DeadlyImportErrorEEPKcS3_RT_b(ptr noundef %17, ptr noundef nonnull align 4 dereferenceable(4) %18, i1 noundef zeroext true)
  %20 = getelementptr inbounds nuw %"class.Assimp::ASE::Parser", ptr %5, i32 0, i32 0
  store ptr %19, ptr %20, align 8
  br label %21

21:                                               ; preds = %15, %10
  ret void
}